; Function Attrs: null_pointer_is_valid sspstrong uwtable
define internal noundef i32 @dissect_nfs3_readdir_reply(ptr noundef %0, ptr noundef %1, ptr noundef %2, ptr readnone captures(none) %3) #0 {
  %5 = alloca ptr, align 8
  %6 = alloca ptr, align 8
  %7 = tail call i32 @tvb_get_ntohl(ptr noundef %0, i32 noundef 0)
  %.not.i = icmp eq ptr %2, null
  br i1 %.not.i, label %dissect_nfs3_status.exit, label %8

8:                                                ; preds = %4
  %9 = load i32, ptr @hf_nfs3_status, align 4
  %10 = tail call ptr @proto_tree_add_uint(ptr noundef nonnull %2, i32 noundef %9, ptr noundef %0, i32 noundef 0, i32 noundef 4, i32 noundef %7)
  %11 = load i32, ptr @hf_nfs_status, align 4
  %12 = tail call ptr @proto_tree_add_uint(ptr noundef nonnull %2, i32 noundef %11, ptr noundef %0, i32 noundef 0, i32 noundef 4, i32 noundef %7)
  %.not.i.i = icmp eq ptr %12, null
  br i1 %.not.i.i, label %dissect_nfs3_status.exit, label %13

13:                                               ; preds = %8
  %14 = getelementptr inbounds nuw i8, ptr %12, i64 40
  %15 = load ptr, ptr %14, align 8
  %.not5.i.i = icmp eq ptr %15, null
  br i1 %.not5.i.i, label %dissect_nfs3_status.exit, label %16

16:                                               ; preds = %13
  %17 = getelementptr inbounds nuw i8, ptr %15, i64 28
  %18 = load i32, ptr %17, align 4
  %19 = or i32 %18, 1
  store i32 %19, ptr %17, align 4
  br label %dissect_nfs3_status.exit

dissect_nfs3_status.exit:                         ; preds = %4, %8, %13, %16
  %cond = icmp eq i32 %7, 0
  br i1 %cond, label %20, label %37

20:                                               ; preds = %dissect_nfs3_status.exit
  tail call void (ptr, ptr, ...) @proto_item_append_text(ptr noundef %2, ptr noundef nonnull @.str.2284)
  call void @llvm.lifetime.start.p0(i64 8, ptr nonnull %6) #22
  %21 = tail call i32 @tvb_get_ntohl(ptr noundef %0, i32 noundef 4)
  %22 = load i32, ptr @ett_nfs3_post_op_attr, align 4
  %23 = call ptr @proto_tree_add_subtree(ptr noundef %2, ptr noundef %0, i32 noundef 4, i32 noundef -1, i32 noundef %22, ptr noundef nonnull %6, ptr noundef nonnull @.str.2305)
  %24 = load i32, ptr @hf_nfs3_attributes_follow, align 4
  %25 = call ptr @proto_tree_add_uint(ptr noundef %23, i32 noundef %24, ptr noundef %0, i32 noundef 4, i32 noundef 4, i32 noundef %21)
  %cond.i = icmp eq i32 %21, 1
  br i1 %cond.i, label %26, label %dissect_nfs3_post_op_attr.exit

26:                                               ; preds = %20
  %27 = call fastcc i32 @dissect_nfs_fattr3(ptr noundef readonly %1, ptr noundef %0, i32 noundef 8, ptr noundef %23, ptr noundef nonnull @.str, i32 noundef 2)
  br label %dissect_nfs3_post_op_attr.exit

dissect_nfs3_post_op_attr.exit:                   ; preds = %20, %26
  %.0.i = phi i32 [ %27, %26 ], [ 8, %20 ]
  %28 = load ptr, ptr %6, align 8
  %29 = add i32 %.0.i, -4
  call void @proto_item_set_len(ptr noundef %28, i32 noundef %29)
  call void @llvm.lifetime.end.p0(i64 8, ptr nonnull %6) #22
  %30 = load i32, ptr @hf_nfs3_verifier, align 4
  %31 = call ptr (ptr, i32, ptr, i32, i32, ptr, ptr, ...) @proto_tree_add_bytes_format_value(ptr noundef %2, i32 noundef %30, ptr noundef %0, i32 noundef %.0.i, i32 noundef 8, ptr noundef null, ptr noundef nonnull @.str.2325)
  %32 = add i32 %.0.i, 8
  %33 = call i32 @dissect_rpc_list(ptr noundef %0, ptr noundef %1, ptr noundef %2, i32 noundef %32, ptr noundef nonnull @dissect_entry3, ptr noundef null)
  %34 = load i32, ptr @hf_nfs_readdir_eof, align 4
  %35 = call ptr @proto_tree_add_item(ptr noundef %2, i32 noundef %34, ptr noundef %0, i32 noundef %33, i32 noundef 4, i32 noundef 0)
  %36 = add i32 %33, 4
  br label %50

37:                                               ; preds = %dissect_nfs3_status.exit
  call void @llvm.lifetime.start.p0(i64 8, ptr nonnull %5) #22
  %38 = tail call i32 @tvb_get_ntohl(ptr noundef %0, i32 noundef 4)
  %39 = load i32, ptr @ett_nfs3_post_op_attr, align 4
  %40 = call ptr @proto_tree_add_subtree(ptr noundef %2, ptr noundef %0, i32 noundef 4, i32 noundef -1, i32 noundef %39, ptr noundef nonnull %5, ptr noundef nonnull @.str.2305)
  %41 = load i32, ptr @hf_nfs3_attributes_follow, align 4
  %42 = call ptr @proto_tree_add_uint(ptr noundef %40, i32 noundef %41, ptr noundef %0, i32 noundef 4, i32 noundef 4, i32 noundef %38)
  %cond.i27 = icmp eq i32 %38, 1
  br i1 %cond.i27, label %43, label %dissect_nfs3_post_op_attr.exit29

43:                                               ; preds = %37
  %44 = call fastcc i32 @dissect_nfs_fattr3(ptr noundef readonly %1, ptr noundef %0, i32 noundef 8, ptr noundef %40, ptr noundef nonnull @.str, i32 noundef 2)
  br label %dissect_nfs3_post_op_attr.exit29

dissect_nfs3_post_op_attr.exit29:                 ; preds = %37, %43
  %.0.i28 = phi i32 [ %44, %43 ], [ 8, %37 ]
  %45 = load ptr, ptr %5, align 8
  %46 = add i32 %.0.i28, -4
  call void @proto_item_set_len(ptr noundef %45, i32 noundef %46)
  call void @llvm.lifetime.end.p0(i64 8, ptr nonnull %5) #22
  %47 = call ptr @val_to_str_ext(i32 noundef %7, ptr noundef nonnull @names_nfs3_status_ext, ptr noundef nonnull @.str.2241)
  %48 = getelementptr inbounds nuw i8, ptr %1, i64 8
  %49 = load ptr, ptr %48, align 8
  call void (ptr, i32, ptr, ...) @col_append_fstr(ptr noundef %49, i32 noundef 25, ptr noundef nonnull @.str.2242, ptr noundef %47)
  call void (ptr, ptr, ...) @proto_item_append_text(ptr noundef %2, ptr noundef nonnull @.str.2285, ptr noundef %47)
  br label %50

50:                                               ; preds = %dissect_nfs3_post_op_attr.exit29, %dissect_nfs3_post_op_attr.exit
  %.0 = phi i32 [ %36, %dissect_nfs3_post_op_attr.exit ], [ %.0.i28, %dissect_nfs3_post_op_attr.exit29 ]
  ret i32 %.0
}